target datalayout = "e-m:e-p270:32:32-p271:32:32-p272:64:64-i64:64-i128:128-f80:128-n8:16:32:64-S128"
target triple = "x86_64-pc-linux-gnu"

%struct.lv_ll_t = type { i32, ptr, ptr }
%struct._lv_display_t = type { i32, i32, i32, i32, i32, i32, i32, ptr, ptr, ptr, ptr, ptr, i32, i32, i8, i32, i16, i32, [32 x %struct.lv_area_t], [32 x i8], i32, i32, %struct.lv_ll_t, %struct._lv_draw_buf_t, %struct._lv_draw_buf_t, ptr, ptr, ptr, ptr, ptr, ptr, ptr, ptr, ptr, ptr, i32, i8, ptr, ptr, %struct.lv_event_list_t, i8, ptr, ptr, i32, %struct.lv_area_t }
%struct._lv_draw_buf_t = type { %struct.lv_image_header_t, i32, ptr, ptr, ptr }
%struct.lv_image_header_t = type <{ i64, i32 }>
%struct.lv_event_list_t = type { %struct._lv_array_t, i8 }
%struct._lv_array_t = type { ptr, i32, i32, i32, i8 }
%struct.lv_area_t = type { i32, i32, i32, i32 }
%struct._lv_event_t = type { ptr, ptr, i32, ptr, ptr, ptr, i8 }

; Function Attrs: inlinehint nounwind uwtable
define internal void @lv_memzero(ptr noundef %0, i64 noundef %1) #3 {
  %3 = alloca ptr, align 8
  %4 = alloca i64, align 8
  store ptr %0, ptr %3, align 8, !tbaa !7
  store i64 %1, ptr %4, align 8, !tbaa !51
  %5 = load ptr, ptr %3, align 8, !tbaa !7
  %6 = load i64, ptr %4, align 8, !tbaa !51
  call void @lv_memset(ptr noundef %5, i8 noundef zeroext 0, i64 noundef %6)
  ret void
}

; Function Attrs: nounwind uwtable
define i32 @lv_display_send_event(ptr noundef %0, i32 noundef %1, ptr noundef %2) #0 {
  %4 = alloca i32, align 4
  %5 = alloca ptr, align 8
  %6 = alloca i32, align 4
  %7 = alloca ptr, align 8
  %8 = alloca %struct._lv_event_t, align 8
  %9 = alloca i32, align 4
  %10 = alloca i32, align 4
  store ptr %0, ptr %5, align 8, !tbaa !7
  store i32 %1, ptr %6, align 4, !tbaa !3
  store ptr %2, ptr %7, align 8, !tbaa !7
  call void @llvm.lifetime.start.p0(i64 56, ptr %8) #5
  call void @lv_memzero(ptr noundef %8, i64 noundef 56)
  %11 = load i32, ptr %6, align 4, !tbaa !3
  %12 = getelementptr inbounds nuw %struct._lv_event_t, ptr %8, i32 0, i32 2
  store i32 %11, ptr %12, align 8, !tbaa !61
  %13 = load ptr, ptr %5, align 8, !tbaa !7
  %14 = getelementptr inbounds nuw %struct._lv_event_t, ptr %8, i32 0, i32 0
  store ptr %13, ptr %14, align 8, !tbaa !63
  %15 = load ptr, ptr %5, align 8, !tbaa !7
  %16 = getelementptr inbounds nuw %struct._lv_event_t, ptr %8, i32 0, i32 1
  store ptr %15, ptr %16, align 8, !tbaa !64
  %17 = load ptr, ptr %7, align 8, !tbaa !7
  %18 = getelementptr inbounds nuw %struct._lv_event_t, ptr %8, i32 0, i32 4
  store ptr %17, ptr %18, align 8, !tbaa !65
  call void @llvm.lifetime.start.p0(i64 4, ptr %9) #5
  %19 = load ptr, ptr %5, align 8, !tbaa !7
  %20 = getelementptr inbounds nuw %struct._lv_display_t, ptr %19, i32 0, i32 39
  %21 = call i32 @lv_event_send(ptr noundef %20, ptr noundef %8, i1 noundef zeroext true)
  store i32 %21, ptr %9, align 4, !tbaa !3
  %22 = load i32, ptr %9, align 4, !tbaa !3
  %23 = icmp ne i32 %22, 1
  br i1 %23, label %24, label %26

24:                                               ; preds = %3
  %25 = load i32, ptr %9, align 4, !tbaa !3
  store i32 %25, ptr %4, align 4
  store i32 1, ptr %10, align 4
  br label %36

26:                                               ; preds = %3
  %27 = load ptr, ptr %5, align 8, !tbaa !7
  %28 = getelementptr inbounds nuw %struct._lv_display_t, ptr %27, i32 0, i32 39
  %29 = call i32 @lv_event_send(ptr noundef %28, ptr noundef %8, i1 noundef zeroext false)
  store i32 %29, ptr %9, align 4, !tbaa !3
  %30 = load i32, ptr %9, align 4, !tbaa !3
  %31 = icmp ne i32 %30, 1
  br i1 %31, label %32, label %34

32:                                               ; preds = %26
  %33 = load i32, ptr %9, align 4, !tbaa !3
  store i32 %33, ptr %4, align 4
  store i32 1, ptr %10, align 4
  br label %36

34:                                               ; preds = %26
  %35 = load i32, ptr %9, align 4, !tbaa !3
  store i32 %35, ptr %4, align 4
  store i32 1, ptr %10, align 4
  br label %36

36:                                               ; preds = %34, %32, %24
  call void @llvm.lifetime.end.p0(i64 4, ptr %9) #5
  call void @llvm.lifetime.end.p0(i64 56, ptr %8) #5
  %37 = load i32, ptr %4, align 4
  ret i32 %37
}