; Function Attrs: nounwind uwtable
define i32 @lv_display_send_event(ptr noundef %0, i32 noundef %1, ptr noundef %2) local_unnamed_addr #0 {
  %4 = alloca %struct._lv_event_t, align 8
  call void @llvm.lifetime.start.p0(i64 56, ptr nonnull %4) #13
  call void @lv_memset(ptr noundef nonnull %4, i8 noundef zeroext 0, i64 noundef 56) #13
  %5 = getelementptr inbounds nuw i8, ptr %4, i64 16
  store i32 %1, ptr %5, align 8, !tbaa !48
  store ptr %0, ptr %4, align 8, !tbaa !50
  %6 = getelementptr inbounds nuw i8, ptr %4, i64 8
  store ptr %0, ptr %6, align 8, !tbaa !51
  %7 = getelementptr inbounds nuw i8, ptr %4, i64 32
  store ptr %2, ptr %7, align 8, !tbaa !52
  %8 = getelementptr inbounds nuw i8, ptr %0, i64 856
  %9 = call i32 @lv_event_send(ptr noundef nonnull %8, ptr noundef nonnull %4, i1 noundef zeroext true) #13
  %.not = icmp eq i32 %9, 1
  br i1 %.not, label %10, label %12

10:                                               ; preds = %3
  %11 = call i32 @lv_event_send(ptr noundef nonnull %8, ptr noundef nonnull %4, i1 noundef zeroext false) #13
  br label %12

12:                                               ; preds = %10, %3
  %.0 = phi i32 [ %9, %3 ], [ %11, %10 ]
  call void @llvm.lifetime.end.p0(i64 56, ptr nonnull %4) #13
  ret i32 %.0
}